target datalayout = "e-m:e-p270:32:32-p271:32:32-p272:64:64-i64:64-i128:128-f80:128-n8:16:32:64-S128"
target triple = "x86_64-pc-linux-gnu"

%struct.SResource = type { ptr, i8, i8, i32, i32, i32, i32, i32, ptr, %struct.UString }
%struct.UString = type { ptr, i32, i32 }
%class.IntVectorResource = type { %struct.SResource, i64, i64, ptr }

; Function Attrs: inlinehint mustprogress nounwind uwtable
define internal noundef signext i8 @_ZL9U_SUCCESS10UErrorCode(i32 noundef %0) #9 {
  %2 = alloca i32, align 4
  store i32 %0, ptr %2, align 4, !tbaa !45
  %3 = load i32, ptr %2, align 4, !tbaa !45
  %4 = icmp sle i32 %3, 0
  %5 = zext i1 %4 to i8
  ret i8 %5
}

; Function Attrs: mustprogress uwtable
define dso_local void @_ZN17IntVectorResource3addEiR10UErrorCode(ptr noundef nonnull align 8 dereferenceable(80) %0, i32 noundef %1, ptr noundef nonnull align 4 dereferenceable(4) %2) #5 align 2 {
  %4 = alloca ptr, align 8
  %5 = alloca i32, align 4
  %6 = alloca ptr, align 8
  %7 = alloca ptr, align 8
  %8 = alloca i32, align 4
  store ptr %0, ptr %4, align 8, !tbaa !89
  store i32 %1, ptr %5, align 4, !tbaa !23
  store ptr %2, ptr %6, align 8, !tbaa !44
  %9 = load ptr, ptr %4, align 8
  %10 = getelementptr inbounds nuw %class.IntVectorResource, ptr %9, i32 0, i32 1
  %11 = load i64, ptr %10, align 8, !tbaa !91
  %12 = getelementptr inbounds nuw %class.IntVectorResource, ptr %9, i32 0, i32 2
  %13 = load i64, ptr %12, align 8, !tbaa !94
  %14 = icmp eq i64 %11, %13
  br i1 %14, label %15, label %51

15:                                               ; preds = %3
  call void @llvm.lifetime.start.p0(i64 8, ptr %7) #3
  %16 = getelementptr inbounds nuw %class.IntVectorResource, ptr %9, i32 0, i32 2
  %17 = load i64, ptr %16, align 8, !tbaa !94
  %18 = mul i64 2, %17
  %19 = call { i64, i1 } @llvm.umul.with.overflow.i64(i64 %18, i64 4)
  %20 = extractvalue { i64, i1 } %19, 1
  %21 = extractvalue { i64, i1 } %19, 0
  %22 = select i1 %20, i64 -1, i64 %21
  %23 = call noalias noundef nonnull ptr @_Znam(i64 noundef %22) #24
  store ptr %23, ptr %7, align 8, !tbaa !96
  %24 = load ptr, ptr %7, align 8, !tbaa !96
  %25 = icmp eq ptr %24, null
  br i1 %25, label %26, label %28

26:                                               ; preds = %15
  %27 = load ptr, ptr %6, align 8, !tbaa !44
  store i32 7, ptr %27, align 4, !tbaa !45
  store i32 1, ptr %8, align 4
  br label %48

28:                                               ; preds = %15
  br label %29

29:                                               ; preds = %28
  %30 = load ptr, ptr %7, align 8, !tbaa !96
  %31 = getelementptr inbounds nuw %class.IntVectorResource, ptr %9, i32 0, i32 3
  %32 = load ptr, ptr %31, align 8, !tbaa !95
  %33 = getelementptr inbounds nuw %class.IntVectorResource, ptr %9, i32 0, i32 2
  %34 = load i64, ptr %33, align 8, !tbaa !94
  %35 = mul i64 %34, 4
  call void @llvm.memcpy.p0.p0.i64(ptr align 4 %30, ptr align 4 %32, i64 %35, i1 false)
  br label %36

36:                                               ; preds = %29
  br label %37

37:                                               ; preds = %36
  %38 = getelementptr inbounds nuw %class.IntVectorResource, ptr %9, i32 0, i32 3
  %39 = load ptr, ptr %38, align 8, !tbaa !95
  %40 = icmp eq ptr %39, null
  br i1 %40, label %42, label %41

41:                                               ; preds = %37
  call void @_ZdaPv(ptr noundef %39) #23
  br label %42

42:                                               ; preds = %41, %37
  %43 = load ptr, ptr %7, align 8, !tbaa !96
  %44 = getelementptr inbounds nuw %class.IntVectorResource, ptr %9, i32 0, i32 3
  store ptr %43, ptr %44, align 8, !tbaa !95
  %45 = getelementptr inbounds nuw %class.IntVectorResource, ptr %9, i32 0, i32 2
  %46 = load i64, ptr %45, align 8, !tbaa !94
  %47 = mul i64 %46, 2
  store i64 %47, ptr %45, align 8, !tbaa !94
  store i32 0, ptr %8, align 4
  br label %48

48:                                               ; preds = %42, %26
  call void @llvm.lifetime.end.p0(i64 8, ptr %7) #3
  %49 = load i32, ptr %8, align 4
  switch i32 %49, label %65 [
    i32 0, label %50
    i32 1, label %64
  ]

50:                                               ; preds = %48
  br label %51

51:                                               ; preds = %50, %3
  %52 = load ptr, ptr %6, align 8, !tbaa !44
  %53 = load i32, ptr %52, align 4, !tbaa !45
  %54 = call noundef signext i8 @_ZL9U_SUCCESS10UErrorCode(i32 noundef %53)
  %55 = icmp ne i8 %54, 0
  br i1 %55, label %56, label %64

56:                                               ; preds = %51
  %57 = load i32, ptr %5, align 4, !tbaa !23
  %58 = getelementptr inbounds nuw %class.IntVectorResource, ptr %9, i32 0, i32 3
  %59 = load ptr, ptr %58, align 8, !tbaa !95
  %60 = getelementptr inbounds nuw %class.IntVectorResource, ptr %9, i32 0, i32 1
  %61 = load i64, ptr %60, align 8, !tbaa !91
  %62 = add i64 %61, 1
  store i64 %62, ptr %60, align 8, !tbaa !91
  %63 = getelementptr inbounds nuw i32, ptr %59, i64 %61
  store i32 %57, ptr %63, align 4, !tbaa !23
  br label %64

64:                                               ; preds = %48, %56, %51
  ret void

65:                                               ; preds = %48
  unreachable
}