; Function Attrs: mustprogress uwtable
define dso_local void @_ZN17IntVectorResource3addEiR10UErrorCode(ptr noundef nonnull align 8 captures(none) dereferenceable(80) %0, i32 noundef %1, ptr noundef nonnull readonly align 4 captures(none) dereferenceable(4) %2) local_unnamed_addr #7 align 2 {
  %4 = getelementptr inbounds nuw i8, ptr %0, i64 56
  %5 = load i64, ptr %4, align 8, !tbaa !53
  %6 = getelementptr inbounds nuw i8, ptr %0, i64 64
  %7 = load i64, ptr %6, align 8, !tbaa !57
  %8 = icmp eq i64 %5, %7
  br i1 %8, label %9, label %22

9:                                                ; preds = %3
  %10 = and i64 %5, 6917529027641081856
  %.not = icmp eq i64 %10, 0
  %11 = shl i64 %5, 3
  %12 = select i1 %.not, i64 %11, i64 -1
  %13 = tail call noalias noundef nonnull ptr @_Znam(i64 noundef %12) #36
  %14 = getelementptr inbounds nuw i8, ptr %0, i64 72
  %15 = load ptr, ptr %14, align 8, !tbaa !58
  %16 = shl i64 %5, 2
  tail call void @llvm.memcpy.p0.p0.i64(ptr nonnull align 4 %13, ptr align 4 %15, i64 %16, i1 false)
  %17 = icmp eq ptr %15, null
  br i1 %17, label %19, label %18

18:                                               ; preds = %9
  tail call void @_ZdaPv(ptr noundef nonnull %15) #35
  %.pre = load i64, ptr %6, align 8, !tbaa !57
  br label %19

19:                                               ; preds = %18, %9
  %20 = phi i64 [ %.pre, %18 ], [ %5, %9 ]
  store ptr %13, ptr %14, align 8, !tbaa !58
  %21 = shl i64 %20, 1
  store i64 %21, ptr %6, align 8, !tbaa !57
  br label %22

22:                                               ; preds = %19, %3
  %23 = load i32, ptr %2, align 4, !tbaa !22
  %24 = icmp sgt i32 %23, 0
  br i1 %24, label %31, label %25

25:                                               ; preds = %22
  %26 = getelementptr inbounds nuw i8, ptr %0, i64 72
  %27 = load ptr, ptr %26, align 8, !tbaa !58
  %28 = load i64, ptr %4, align 8, !tbaa !53
  %29 = add i64 %28, 1
  store i64 %29, ptr %4, align 8, !tbaa !53
  %30 = getelementptr inbounds nuw i32, ptr %27, i64 %28
  store i32 %1, ptr %30, align 4, !tbaa !7
  br label %31

31:                                               ; preds = %25, %22
  ret void
}